; Function Attrs: mustprogress uwtable
define hidden noundef nonnull ptr @_ZN6Assimp7Blender11createMEdgeEm(i64 noundef %cnt) #0 personality ptr @__gxx_personality_v0 {
entry:
  %0 = icmp ugt i64 %cnt, 576460752303423487
  %1 = shl i64 %cnt, 5
  %2 = or disjoint i64 %1, 8
  %3 = select i1 %0, i64 -1, i64 %2
  %call = tail call noalias noundef nonnull ptr @_Znam(i64 noundef %3) #17
  store i64 %cnt, ptr %call, align 16
  %4 = getelementptr inbounds i8, ptr %call, i64 8
  %isempty = icmp eq i64 %cnt, 0
  br i1 %isempty, label %arrayctor.cont, label %new.ctorloop

new.ctorloop:                                     ; preds = %entry
  %arrayctor.end = getelementptr inbounds %"struct.Assimp::Blender::MEdge", ptr %4, i64 %cnt
  br label %arrayctor.loop

arrayctor.loop:                                   ; preds = %arrayctor.loop, %new.ctorloop
  %arrayctor.cur = phi ptr [ %4, %new.ctorloop ], [ %arrayctor.next, %arrayctor.loop ]
  %dna_type.i.i = getelementptr inbounds i8, ptr %arrayctor.cur, i64 8
  store ptr null, ptr %dna_type.i.i, align 8
  store ptr getelementptr inbounds ({ [4 x ptr] }, ptr @_ZTVN6Assimp7Blender5MEdgeE, i64 0, i32 0, i64 2), ptr %arrayctor.cur, align 8
  %arrayctor.next = getelementptr inbounds i8, ptr %arrayctor.cur, i64 32
  %arrayctor.done = icmp eq ptr %arrayctor.next, %arrayctor.end
  br i1 %arrayctor.done, label %arrayctor.cont, label %arrayctor.loop

arrayctor.cont:                                   ; preds = %arrayctor.loop, %entry
  ret ptr %4
}